; Function Attrs: mustprogress nofree norecurse nosync nounwind sspstrong willreturn memory(argmem: readwrite) uwtable
define internal range(i64 1, 5) i64 @fun_so_from_utf_16le(ptr readnone captures(none) %0, ptr noundef readonly captures(none) %1, i64 %2, ptr noundef writeonly captures(none) initializes((0, 1)) %3, i64 %4) #2 {
  %6 = getelementptr inbounds nuw i8, ptr %1, i64 1
  %7 = load i8, ptr %6, align 1, !tbaa !6
  %.not = icmp eq i8 %7, 0
  br i1 %.not, label %8, label %12

8:                                                ; preds = %5
  %9 = load i8, ptr %1, align 1, !tbaa !6
  %10 = icmp sgt i8 %9, -1
  br i1 %10, label %11, label %.thread

11:                                               ; preds = %8
  store i8 %9, ptr %3, align 1, !tbaa !6
  br label %73

12:                                               ; preds = %5
  %13 = icmp ult i8 %7, 8
  br i1 %13, label %..thread_crit_edge, label %21

..thread_crit_edge:                               ; preds = %12
  %.pre = load i8, ptr %1, align 1, !tbaa !6
  br label %.thread

.thread:                                          ; preds = %..thread_crit_edge, %8
  %14 = phi i8 [ %.pre, %..thread_crit_edge ], [ %9, %8 ]
  %15 = tail call i8 @llvm.fshl.i8(i8 %7, i8 %14, i8 2)
  %16 = or disjoint i8 %15, -64
  store i8 %16, ptr %3, align 1, !tbaa !6
  %17 = load i8, ptr %1, align 1, !tbaa !6
  %18 = and i8 %17, 63
  %19 = or disjoint i8 %18, -128
  %20 = getelementptr inbounds nuw i8, ptr %3, i64 1
  store i8 %19, ptr %20, align 1, !tbaa !6
  br label %73

21:                                               ; preds = %12
  %22 = and i8 %7, -8
  %.not32 = icmp eq i8 %22, -40
  br i1 %.not32, label %38, label %23

23:                                               ; preds = %21
  %24 = lshr i8 %7, 4
  %25 = or disjoint i8 %24, -32
  store i8 %25, ptr %3, align 1, !tbaa !6
  %26 = load i8, ptr %6, align 1, !tbaa !6
  %27 = shl i8 %26, 2
  %28 = and i8 %27, 60
  %29 = load i8, ptr %1, align 1, !tbaa !6
  %30 = lshr i8 %29, 6
  %31 = or disjoint i8 %30, %28
  %32 = or disjoint i8 %31, -128
  %33 = getelementptr inbounds nuw i8, ptr %3, i64 1
  store i8 %32, ptr %33, align 1, !tbaa !6
  %34 = load i8, ptr %1, align 1, !tbaa !6
  %35 = and i8 %34, 63
  %36 = or disjoint i8 %35, -128
  %37 = getelementptr inbounds nuw i8, ptr %3, i64 2
  store i8 %36, ptr %37, align 1, !tbaa !6
  br label %73

38:                                               ; preds = %21
  %39 = shl i8 %7, 2
  %40 = and i8 %39, 12
  %41 = load i8, ptr %1, align 1, !tbaa !6
  %42 = lshr i8 %41, 6
  %43 = or disjoint i8 %42, %40
  %44 = add nuw nsw i8 %43, 1
  %45 = lshr i8 %44, 2
  %46 = or disjoint i8 %45, -16
  store i8 %46, ptr %3, align 1, !tbaa !6
  %47 = load i8, ptr %1, align 1, !tbaa !6
  %48 = lshr i8 %47, 2
  %49 = and i8 %48, 15
  %50 = shl i8 %44, 4
  %51 = and i8 %50, 48
  %52 = or disjoint i8 %49, %51
  %53 = or disjoint i8 %52, -128
  %54 = getelementptr inbounds nuw i8, ptr %3, i64 1
  store i8 %53, ptr %54, align 1, !tbaa !6
  %55 = load i8, ptr %1, align 1, !tbaa !6
  %56 = shl i8 %55, 4
  %57 = and i8 %56, 48
  %58 = getelementptr inbounds nuw i8, ptr %1, i64 3
  %59 = load i8, ptr %58, align 1, !tbaa !6
  %60 = shl i8 %59, 2
  %61 = and i8 %60, 12
  %62 = getelementptr inbounds nuw i8, ptr %1, i64 2
  %63 = load i8, ptr %62, align 1, !tbaa !6
  %64 = lshr i8 %63, 6
  %65 = or disjoint i8 %57, %61
  %66 = or disjoint i8 %65, %64
  %67 = or disjoint i8 %66, -128
  %68 = getelementptr inbounds nuw i8, ptr %3, i64 2
  store i8 %67, ptr %68, align 1, !tbaa !6
  %69 = load i8, ptr %62, align 1, !tbaa !6
  %70 = and i8 %69, 63
  %71 = or disjoint i8 %70, -128
  %72 = getelementptr inbounds nuw i8, ptr %3, i64 3
  store i8 %71, ptr %72, align 1, !tbaa !6
  br label %73

73:                                               ; preds = %38, %23, %.thread, %11
  %.0 = phi i64 [ 2, %.thread ], [ 3, %23 ], [ 4, %38 ], [ 1, %11 ]
  ret i64 %.0
}